target datalayout = "e-m:e-p270:32:32-p271:32:32-p272:64:64-i64:64-i128:128-f80:128-n8:16:32:64-S128"
target triple = "x86_64-pc-linux-gnu"

%struct.dirent = type { i64, i64, i16, i8, [256 x i8] }
%struct.rlimit = type { i64, i64 }

@.str = private unnamed_addr constant [14 x i8] c"/proc/self/fd\00", align 1
@.str.1 = private unnamed_addr constant [78 x i8] c"Could not read open files from %s: %m, closing all potential file descriptors\00", align 1
@.str.48 = private unnamed_addr constant [29 x i8] c"getrlimit(RLIMIT_NOFILE): %m\00", align 1

; Function Attrs: nounwind uwtable
define internal zeroext i1 @_is_fd_skipped(i32 noundef %0, ptr noundef %1) #0 {
  %3 = alloca i1, align 1
  %4 = alloca i32, align 4
  %5 = alloca ptr, align 8
  %6 = alloca i32, align 4
  %7 = alloca i32, align 4
  store i32 %0, ptr %4, align 4
  store ptr %1, ptr %5, align 8
  %8 = load ptr, ptr %5, align 8
  %9 = icmp ne ptr %8, null
  br i1 %9, label %11, label %10

10:                                               ; preds = %2
  store i1 false, ptr %3, align 1
  br label %36

11:                                               ; preds = %2
  call void @llvm.lifetime.start.p0(i64 4, ptr %6) #10
  store i32 0, ptr %6, align 4
  br label %12

12:                                               ; preds = %30, %11
  %13 = load ptr, ptr %5, align 8
  %14 = load i32, ptr %6, align 4
  %15 = sext i32 %14 to i64
  %16 = getelementptr inbounds i32, ptr %13, i64 %15
  %17 = load i32, ptr %16, align 4
  %18 = icmp sge i32 %17, 0
  br i1 %18, label %20, label %19

19:                                               ; preds = %12
  store i32 2, ptr %7, align 4
  br label %33

20:                                               ; preds = %12
  %21 = load i32, ptr %4, align 4
  %22 = load ptr, ptr %5, align 8
  %23 = load i32, ptr %6, align 4
  %24 = sext i32 %23 to i64
  %25 = getelementptr inbounds i32, ptr %22, i64 %24
  %26 = load i32, ptr %25, align 4
  %27 = icmp eq i32 %21, %26
  br i1 %27, label %28, label %29

28:                                               ; preds = %20
  store i1 true, ptr %3, align 1
  store i32 1, ptr %7, align 4
  br label %33

29:                                               ; preds = %20
  br label %30

30:                                               ; preds = %29
  %31 = load i32, ptr %6, align 4
  %32 = add nsw i32 %31, 1
  store i32 %32, ptr %6, align 4
  br label %12, !llvm.loop !14

33:                                               ; preds = %28, %19
  call void @llvm.lifetime.end.p0(i64 4, ptr %6) #10
  %34 = load i32, ptr %7, align 4
  switch i32 %34, label %38 [
    i32 2, label %35
    i32 1, label %36
  ]

35:                                               ; preds = %33
  store i1 false, ptr %3, align 1
  br label %36

36:                                               ; preds = %35, %33, %10
  %37 = load i1, ptr %3, align 1
  ret i1 %37

38:                                               ; preds = %33
  unreachable
}

; Function Attrs: inlinehint nounwind willreturn memory(read) uwtable
define available_externally i32 @atoi(ptr noundef nonnull %0) #3 {
  %2 = alloca ptr, align 8
  store ptr %0, ptr %2, align 8
  %3 = load ptr, ptr %2, align 8
  %4 = call i64 @strtol(ptr noundef %3, ptr noundef null, i32 noundef 10) #10
  %5 = trunc i64 %4 to i32
  ret i32 %5
}

; Function Attrs: nounwind uwtable
define internal void @_slow_closeall(i32 noundef %0, ptr noundef %1) #0 {
  %3 = alloca i32, align 4
  %4 = alloca ptr, align 8
  %5 = alloca %struct.rlimit, align 8
  store i32 %0, ptr %3, align 4
  store ptr %1, ptr %4, align 8
  call void @llvm.lifetime.start.p0(i64 16, ptr %5) #10
  %6 = call i32 @getrlimit(i32 noundef 7, ptr noundef %5) #10
  %7 = icmp slt i32 %6, 0
  br i1 %7, label %8, label %11

8:                                                ; preds = %2
  %9 = call i32 (ptr, ...) @error(ptr noundef @.str.48)
  %10 = getelementptr inbounds nuw %struct.rlimit, ptr %5, i32 0, i32 0
  store i64 4096, ptr %10, align 8
  br label %11

11:                                               ; preds = %8, %2
  br label %12

12:                                               ; preds = %26, %11
  %13 = load i32, ptr %3, align 4
  %14 = sext i32 %13 to i64
  %15 = getelementptr inbounds nuw %struct.rlimit, ptr %5, i32 0, i32 0
  %16 = load i64, ptr %15, align 8
  %17 = icmp ult i64 %14, %16
  br i1 %17, label %18, label %29

18:                                               ; preds = %12
  %19 = load i32, ptr %3, align 4
  %20 = load ptr, ptr %4, align 8
  %21 = call zeroext i1 @_is_fd_skipped(i32 noundef %19, ptr noundef %20)
  br i1 %21, label %25, label %22

22:                                               ; preds = %18
  %23 = load i32, ptr %3, align 4
  %24 = call i32 @close(i32 noundef %23)
  br label %25

25:                                               ; preds = %22, %18
  br label %26

26:                                               ; preds = %25
  %27 = load i32, ptr %3, align 4
  %28 = add nsw i32 %27, 1
  store i32 %28, ptr %3, align 4
  br label %12, !llvm.loop !13

29:                                               ; preds = %12
  call void @llvm.lifetime.end.p0(i64 16, ptr %5) #10
  ret void
}

; Function Attrs: nounwind uwtable
define dso_local void @closeall_except(i32 noundef %0, ptr noundef %1) #0 {
  %3 = alloca i32, align 4
  %4 = alloca ptr, align 8
  %5 = alloca ptr, align 8
  %6 = alloca ptr, align 8
  %7 = alloca ptr, align 8
  %8 = alloca i32, align 4
  %9 = alloca i32, align 4
  store i32 %0, ptr %3, align 4
  store ptr %1, ptr %4, align 8
  call void @llvm.lifetime.start.p0(i64 8, ptr %5) #10
  store ptr @.str, ptr %5, align 8
  call void @llvm.lifetime.start.p0(i64 8, ptr %6) #10
  call void @llvm.lifetime.start.p0(i64 8, ptr %7) #10
  %10 = load ptr, ptr %5, align 8
  %11 = call ptr @opendir(ptr noundef %10)
  store ptr %11, ptr %6, align 8
  %12 = icmp ne ptr %11, null
  br i1 %12, label %27, label %13

13:                                               ; preds = %2
  br label %14

14:                                               ; preds = %13
  br label %15

15:                                               ; preds = %14
  %16 = call i32 @get_log_level()
  %17 = icmp sge i32 %16, 5
  br i1 %17, label %18, label %20

18:                                               ; preds = %15
  %19 = load ptr, ptr %5, align 8
  call void (i32, ptr, ...) @log_var(i32 noundef 5, ptr noundef @.str.1, ptr noundef %19)
  br label %20

20:                                               ; preds = %18, %15
  br label %21

21:                                               ; preds = %20
  br label %22

22:                                               ; preds = %21
  br label %23

23:                                               ; preds = %22
  br label %24

24:                                               ; preds = %23
  %25 = load i32, ptr %3, align 4
  %26 = load ptr, ptr %4, align 8
  call void @_slow_closeall(i32 noundef %25, ptr noundef %26)
  store i32 1, ptr %8, align 4
  br label %58

27:                                               ; preds = %2
  br label %28

28:                                               ; preds = %54, %27
  %29 = load ptr, ptr %6, align 8
  %30 = call ptr @readdir(ptr noundef %29)
  store ptr %30, ptr %7, align 8
  %31 = icmp ne ptr %30, null
  br i1 %31, label %32, label %55

32:                                               ; preds = %28
  %33 = load ptr, ptr %7, align 8
  %34 = getelementptr inbounds nuw %struct.dirent, ptr %33, i32 0, i32 3
  %35 = load i8, ptr %34, align 2
  %36 = zext i8 %35 to i32
  %37 = icmp ne i32 %36, 4
  br i1 %37, label %38, label %54

38:                                               ; preds = %32
  call void @llvm.lifetime.start.p0(i64 4, ptr %9) #10
  %39 = load ptr, ptr %7, align 8
  %40 = getelementptr inbounds nuw %struct.dirent, ptr %39, i32 0, i32 4
  %41 = getelementptr inbounds [256 x i8], ptr %40, i64 0, i64 0
  %42 = call i32 @atoi(ptr noundef %41) #11
  store i32 %42, ptr %9, align 4
  %43 = load i32, ptr %9, align 4
  %44 = load i32, ptr %3, align 4
  %45 = icmp sge i32 %43, %44
  br i1 %45, label %46, label %53

46:                                               ; preds = %38
  %47 = load i32, ptr %9, align 4
  %48 = load ptr, ptr %4, align 8
  %49 = call zeroext i1 @_is_fd_skipped(i32 noundef %47, ptr noundef %48)
  br i1 %49, label %53, label %50

50:                                               ; preds = %46
  %51 = load i32, ptr %9, align 4
  %52 = call i32 @close(i32 noundef %51)
  br label %53

53:                                               ; preds = %50, %46, %38
  call void @llvm.lifetime.end.p0(i64 4, ptr %9) #10
  br label %54

54:                                               ; preds = %53, %32
  br label %28, !llvm.loop !8

55:                                               ; preds = %28
  %56 = load ptr, ptr %6, align 8
  %57 = call i32 @closedir(ptr noundef %56)
  store i32 0, ptr %8, align 4
  br label %58

58:                                               ; preds = %55, %24
  call void @llvm.lifetime.end.p0(i64 8, ptr %7) #10
  call void @llvm.lifetime.end.p0(i64 8, ptr %6) #10
  call void @llvm.lifetime.end.p0(i64 8, ptr %5) #10
  %59 = load i32, ptr %8, align 4
  switch i32 %59, label %61 [
    i32 0, label %60
    i32 1, label %60
  ]

60:                                               ; preds = %58, %58
  ret void

61:                                               ; preds = %58
  unreachable
}