; Function Attrs: nounwind uwtable
define dso_local void @closeall_except(i32 noundef %0, ptr noundef readonly captures(address_is_null) %1) #0 {
  %3 = alloca %struct.rlimit, align 8
  %4 = tail call ptr @opendir(ptr noundef nonnull @.str)
  %.not = icmp eq ptr %4, null
  br i1 %.not, label %16, label %.preheader

.preheader:                                       ; preds = %2
  %5 = tail call ptr @readdir(ptr noundef nonnull %4) #10
  %.not1321 = icmp eq ptr %5, null
  br i1 %.not1321, label %._crit_edge, label %.lr.ph

.lr.ph:                                           ; preds = %.preheader
  %.not.i = icmp eq ptr %1, null
  br i1 %.not.i, label %.lr.ph.split.us, label %.lr.ph.split

.lr.ph.split.us:                                  ; preds = %.lr.ph, %14
  %6 = phi ptr [ %15, %14 ], [ %5, %.lr.ph ]
  %7 = getelementptr inbounds nuw i8, ptr %6, i64 18
  %8 = load i8, ptr %7, align 2
  %.not14.us = icmp eq i8 %8, 4
  br i1 %.not14.us, label %14, label %9

9:                                                ; preds = %.lr.ph.split.us
  %10 = getelementptr inbounds nuw i8, ptr %6, i64 19
  %11 = tail call i64 @strtol(ptr noundef nonnull captures(none) %10, ptr noundef null, i32 noundef 10) #10
  %12 = trunc i64 %11 to i32
  %.not15.us = icmp sgt i32 %0, %12
  br i1 %.not15.us, label %14, label %_is_fd_skipped.exit.thread.us

_is_fd_skipped.exit.thread.us:                    ; preds = %9
  %13 = tail call i32 @close(i32 noundef %12) #10
  br label %14

14:                                               ; preds = %_is_fd_skipped.exit.thread.us, %9, %.lr.ph.split.us
  %15 = tail call ptr @readdir(ptr noundef nonnull %4) #10
  %.not13.us = icmp eq ptr %15, null
  br i1 %.not13.us, label %._crit_edge, label %.lr.ph.split.us, !llvm.loop !8

16:                                               ; preds = %2
  %17 = tail call i32 @get_log_level() #10
  %18 = icmp sgt i32 %17, 4
  br i1 %18, label %19, label %20

19:                                               ; preds = %16
  tail call void (i32, ptr, ...) @log_var(i32 noundef 5, ptr noundef nonnull @.str.1, ptr noundef nonnull @.str) #10
  br label %20

20:                                               ; preds = %19, %16
  call void @llvm.lifetime.start.p0(i64 16, ptr nonnull %3) #10
  %21 = call i32 @getrlimit(i32 noundef 7, ptr noundef nonnull %3) #10
  %22 = icmp slt i32 %21, 0
  br i1 %22, label %23, label %._crit_edge11.i

._crit_edge11.i:                                  ; preds = %20
  %.pre.i = load i64, ptr %3, align 8
  br label %25

23:                                               ; preds = %20
  %24 = call i32 (ptr, ...) @error(ptr noundef nonnull @.str.48) #10
  store i64 4096, ptr %3, align 8
  br label %25

25:                                               ; preds = %23, %._crit_edge11.i
  %26 = phi i64 [ %.pre.i, %._crit_edge11.i ], [ 4096, %23 ]
  %27 = sext i32 %0 to i64
  %28 = icmp ugt i64 %26, %27
  br i1 %28, label %.lr.ph.i, label %_slow_closeall.exit

.lr.ph.i:                                         ; preds = %25
  %.not.i.i = icmp eq ptr %1, null
  br i1 %.not.i.i, label %_is_fd_skipped.exit.thread.us.i, label %.preheader.i.preheader.i

_is_fd_skipped.exit.thread.us.i:                  ; preds = %.lr.ph.i, %_is_fd_skipped.exit.thread.us.i
  %indvars.iv8.i = phi i64 [ %indvars.iv.next9.i, %_is_fd_skipped.exit.thread.us.i ], [ %27, %.lr.ph.i ]
  %29 = trunc nsw i64 %indvars.iv8.i to i32
  %30 = call i32 @close(i32 noundef %29) #10
  %indvars.iv.next9.i = add nuw nsw i64 %indvars.iv8.i, 1
  %31 = load i64, ptr %3, align 8
  %32 = icmp ugt i64 %31, %indvars.iv.next9.i
  br i1 %32, label %_is_fd_skipped.exit.thread.us.i, label %_slow_closeall.exit, !llvm.loop !11

.preheader.i.preheader.i:                         ; preds = %.lr.ph.i, %40
  %33 = phi i64 [ %41, %40 ], [ %26, %.lr.ph.i ]
  %indvars.iv.i = phi i64 [ %indvars.iv.next.i, %40 ], [ %27, %.lr.ph.i ]
  %34 = trunc nsw i64 %indvars.iv.i to i32
  br label %.preheader.i.i

.preheader.i.i:                                   ; preds = %.preheader.i.i, %.preheader.i.preheader.i
  %indvars.iv.i.i = phi i64 [ %indvars.iv.next.i.i, %.preheader.i.i ], [ 0, %.preheader.i.preheader.i ]
  %35 = getelementptr inbounds nuw i32, ptr %1, i64 %indvars.iv.i.i
  %36 = load i32, ptr %35, align 4
  %37 = icmp sgt i32 %36, -1
  %38 = icmp ne i32 %36, %34
  %or.cond.not.i.i = and i1 %38, %37
  %indvars.iv.next.i.i = add nuw nsw i64 %indvars.iv.i.i, 1
  br i1 %or.cond.not.i.i, label %.preheader.i.i, label %_is_fd_skipped.exit.i, !llvm.loop !12

_is_fd_skipped.exit.i:                            ; preds = %.preheader.i.i
  br i1 %37, label %40, label %_is_fd_skipped.exit.thread.i

_is_fd_skipped.exit.thread.i:                     ; preds = %_is_fd_skipped.exit.i
  %39 = call i32 @close(i32 noundef %34) #10
  %.pre12.i = load i64, ptr %3, align 8
  br label %40

40:                                               ; preds = %_is_fd_skipped.exit.thread.i, %_is_fd_skipped.exit.i
  %41 = phi i64 [ %33, %_is_fd_skipped.exit.i ], [ %.pre12.i, %_is_fd_skipped.exit.thread.i ]
  %indvars.iv.next.i = add nuw nsw i64 %indvars.iv.i, 1
  %42 = icmp ugt i64 %41, %indvars.iv.next.i
  br i1 %42, label %.preheader.i.preheader.i, label %_slow_closeall.exit, !llvm.loop !11

_slow_closeall.exit:                              ; preds = %40, %_is_fd_skipped.exit.thread.us.i, %25
  call void @llvm.lifetime.end.p0(i64 16, ptr nonnull %3) #10
  br label %58

.lr.ph.split:                                     ; preds = %.lr.ph, %55
  %43 = phi ptr [ %56, %55 ], [ %5, %.lr.ph ]
  %44 = getelementptr inbounds nuw i8, ptr %43, i64 18
  %45 = load i8, ptr %44, align 2
  %.not14 = icmp eq i8 %45, 4
  br i1 %.not14, label %55, label %46

46:                                               ; preds = %.lr.ph.split
  %47 = getelementptr inbounds nuw i8, ptr %43, i64 19
  %48 = tail call i64 @strtol(ptr noundef nonnull captures(none) %47, ptr noundef null, i32 noundef 10) #10
  %49 = trunc i64 %48 to i32
  %.not15 = icmp sgt i32 %0, %49
  br i1 %.not15, label %55, label %.preheader.i

.preheader.i:                                     ; preds = %46, %.preheader.i
  %indvars.iv.i16 = phi i64 [ %indvars.iv.next.i17, %.preheader.i ], [ 0, %46 ]
  %50 = getelementptr inbounds nuw i32, ptr %1, i64 %indvars.iv.i16
  %51 = load i32, ptr %50, align 4
  %52 = icmp sgt i32 %51, -1
  %53 = icmp ne i32 %51, %49
  %or.cond.not.i = and i1 %53, %52
  %indvars.iv.next.i17 = add nuw nsw i64 %indvars.iv.i16, 1
  br i1 %or.cond.not.i, label %.preheader.i, label %_is_fd_skipped.exit, !llvm.loop !12

_is_fd_skipped.exit:                              ; preds = %.preheader.i
  br i1 %52, label %55, label %_is_fd_skipped.exit.thread

_is_fd_skipped.exit.thread:                       ; preds = %_is_fd_skipped.exit
  %54 = tail call i32 @close(i32 noundef %49) #10
  br label %55

55:                                               ; preds = %46, %_is_fd_skipped.exit, %_is_fd_skipped.exit.thread, %.lr.ph.split
  %56 = tail call ptr @readdir(ptr noundef nonnull %4) #10
  %.not13 = icmp eq ptr %56, null
  br i1 %.not13, label %._crit_edge, label %.lr.ph.split, !llvm.loop !8

._crit_edge:                                      ; preds = %55, %14, %.preheader
  %57 = tail call i32 @closedir(ptr noundef nonnull %4)
  br label %58

58:                                               ; preds = %._crit_edge, %_slow_closeall.exit
  ret void
}